target datalayout = "e-m:e-p270:32:32-p271:32:32-p272:64:64-i64:64-i128:128-f80:128-n8:16:32:64-S128"
target triple = "x86_64-pc-linux-gnu"

%struct.decNumber = type { i32, i32, i8, [1 x i16] }

@d2utable = dso_local constant [50 x i8] c"\00\01\01\01\02\02\02\03\03\03\04\04\04\05\05\05\06\06\06\07\07\07\08\08\08\09\09\09\0A\0A\0A\0B\0B\0B\0C\0C\0C\0D\0D\0D\0E\0E\0E\0F\0F\0F\10\10\10\11", align 16

; Function Attrs: nounwind uwtable
define dso_local ptr @decNumberCopy(ptr noundef %0, ptr noundef %1) #0 {
  %3 = alloca ptr, align 8
  %4 = alloca ptr, align 8
  %5 = alloca ptr, align 8
  %6 = alloca ptr, align 8
  %7 = alloca ptr, align 8
  %8 = alloca ptr, align 8
  store ptr %0, ptr %4, align 8, !tbaa !4
  store ptr %1, ptr %5, align 8, !tbaa !4
  %9 = load ptr, ptr %4, align 8, !tbaa !4
  %10 = load ptr, ptr %5, align 8, !tbaa !4
  %11 = icmp eq ptr %9, %10
  br i1 %11, label %12, label %14

12:                                               ; preds = %2
  %13 = load ptr, ptr %4, align 8, !tbaa !4
  store ptr %13, ptr %3, align 8
  br label %92

14:                                               ; preds = %2
  %15 = load ptr, ptr %5, align 8, !tbaa !4
  %16 = getelementptr inbounds nuw %struct.decNumber, ptr %15, i32 0, i32 2
  %17 = load i8, ptr %16, align 4, !tbaa !10
  %18 = load ptr, ptr %4, align 8, !tbaa !4
  %19 = getelementptr inbounds nuw %struct.decNumber, ptr %18, i32 0, i32 2
  store i8 %17, ptr %19, align 4, !tbaa !10
  %20 = load ptr, ptr %5, align 8, !tbaa !4
  %21 = getelementptr inbounds nuw %struct.decNumber, ptr %20, i32 0, i32 1
  %22 = load i32, ptr %21, align 4, !tbaa !19
  %23 = load ptr, ptr %4, align 8, !tbaa !4
  %24 = getelementptr inbounds nuw %struct.decNumber, ptr %23, i32 0, i32 1
  store i32 %22, ptr %24, align 4, !tbaa !19
  %25 = load ptr, ptr %5, align 8, !tbaa !4
  %26 = getelementptr inbounds nuw %struct.decNumber, ptr %25, i32 0, i32 0
  %27 = load i32, ptr %26, align 4, !tbaa !18
  %28 = load ptr, ptr %4, align 8, !tbaa !4
  %29 = getelementptr inbounds nuw %struct.decNumber, ptr %28, i32 0, i32 0
  store i32 %27, ptr %29, align 4, !tbaa !18
  %30 = load ptr, ptr %5, align 8, !tbaa !4
  %31 = getelementptr inbounds nuw %struct.decNumber, ptr %30, i32 0, i32 3
  %32 = getelementptr inbounds [1 x i16], ptr %31, i64 0, i64 0
  %33 = load i16, ptr %32, align 2, !tbaa !14
  %34 = load ptr, ptr %4, align 8, !tbaa !4
  %35 = getelementptr inbounds nuw %struct.decNumber, ptr %34, i32 0, i32 3
  %36 = getelementptr inbounds [1 x i16], ptr %35, i64 0, i64 0
  store i16 %33, ptr %36, align 2, !tbaa !14
  %37 = load ptr, ptr %5, align 8, !tbaa !4
  %38 = getelementptr inbounds nuw %struct.decNumber, ptr %37, i32 0, i32 0
  %39 = load i32, ptr %38, align 4, !tbaa !18
  %40 = icmp sgt i32 %39, 3
  br i1 %40, label %41, label %90

41:                                               ; preds = %14
  call void @llvm.lifetime.start.p0(i64 8, ptr %6) #7
  call void @llvm.lifetime.start.p0(i64 8, ptr %7) #7
  call void @llvm.lifetime.start.p0(i64 8, ptr %8) #7
  %42 = load ptr, ptr %4, align 8, !tbaa !4
  %43 = getelementptr inbounds nuw %struct.decNumber, ptr %42, i32 0, i32 3
  %44 = getelementptr inbounds [1 x i16], ptr %43, i64 0, i64 0
  %45 = getelementptr inbounds i16, ptr %44, i64 1
  store ptr %45, ptr %8, align 8, !tbaa !12
  %46 = load ptr, ptr %5, align 8, !tbaa !4
  %47 = getelementptr inbounds nuw %struct.decNumber, ptr %46, i32 0, i32 3
  %48 = getelementptr inbounds [1 x i16], ptr %47, i64 0, i64 0
  %49 = load ptr, ptr %5, align 8, !tbaa !4
  %50 = getelementptr inbounds nuw %struct.decNumber, ptr %49, i32 0, i32 0
  %51 = load i32, ptr %50, align 4, !tbaa !18
  %52 = icmp sle i32 %51, 49
  br i1 %52, label %53, label %61

53:                                               ; preds = %41
  %54 = load ptr, ptr %5, align 8, !tbaa !4
  %55 = getelementptr inbounds nuw %struct.decNumber, ptr %54, i32 0, i32 0
  %56 = load i32, ptr %55, align 4, !tbaa !18
  %57 = sext i32 %56 to i64
  %58 = getelementptr inbounds [50 x i8], ptr @d2utable, i64 0, i64 %57
  %59 = load i8, ptr %58, align 1, !tbaa !25
  %60 = zext i8 %59 to i32
  br label %68

61:                                               ; preds = %41
  %62 = load ptr, ptr %5, align 8, !tbaa !4
  %63 = getelementptr inbounds nuw %struct.decNumber, ptr %62, i32 0, i32 0
  %64 = load i32, ptr %63, align 4, !tbaa !18
  %65 = add nsw i32 %64, 3
  %66 = sub nsw i32 %65, 1
  %67 = sdiv i32 %66, 3
  br label %68

68:                                               ; preds = %61, %53
  %69 = phi i32 [ %60, %53 ], [ %67, %61 ]
  %70 = sext i32 %69 to i64
  %71 = getelementptr inbounds i16, ptr %48, i64 %70
  store ptr %71, ptr %6, align 8, !tbaa !12
  %72 = load ptr, ptr %5, align 8, !tbaa !4
  %73 = getelementptr inbounds nuw %struct.decNumber, ptr %72, i32 0, i32 3
  %74 = getelementptr inbounds [1 x i16], ptr %73, i64 0, i64 0
  %75 = getelementptr inbounds i16, ptr %74, i64 1
  store ptr %75, ptr %7, align 8, !tbaa !12
  br label %76

76:                                               ; preds = %84, %68
  %77 = load ptr, ptr %7, align 8, !tbaa !12
  %78 = load ptr, ptr %6, align 8, !tbaa !12
  %79 = icmp ult ptr %77, %78
  br i1 %79, label %80, label %89

80:                                               ; preds = %76
  %81 = load ptr, ptr %7, align 8, !tbaa !12
  %82 = load i16, ptr %81, align 2, !tbaa !14
  %83 = load ptr, ptr %8, align 8, !tbaa !12
  store i16 %82, ptr %83, align 2, !tbaa !14
  br label %84

84:                                               ; preds = %80
  %85 = load ptr, ptr %7, align 8, !tbaa !12
  %86 = getelementptr inbounds nuw i16, ptr %85, i32 1
  store ptr %86, ptr %7, align 8, !tbaa !12
  %87 = load ptr, ptr %8, align 8, !tbaa !12
  %88 = getelementptr inbounds nuw i16, ptr %87, i32 1
  store ptr %88, ptr %8, align 8, !tbaa !12
  br label %76, !llvm.loop !48

89:                                               ; preds = %76
  call void @llvm.lifetime.end.p0(i64 8, ptr %8) #7
  call void @llvm.lifetime.end.p0(i64 8, ptr %7) #7
  call void @llvm.lifetime.end.p0(i64 8, ptr %6) #7
  br label %90

90:                                               ; preds = %89, %14
  %91 = load ptr, ptr %4, align 8, !tbaa !4
  store ptr %91, ptr %3, align 8
  br label %92

92:                                               ; preds = %90, %12
  %93 = load ptr, ptr %3, align 8
  ret ptr %93
}

; Function Attrs: nounwind uwtable
define dso_local ptr @decNumberCopyNegate(ptr noundef %0, ptr noundef %1) #0 {
  %3 = alloca ptr, align 8
  %4 = alloca ptr, align 8
  store ptr %0, ptr %3, align 8, !tbaa !4
  store ptr %1, ptr %4, align 8, !tbaa !4
  %5 = load ptr, ptr %3, align 8, !tbaa !4
  %6 = load ptr, ptr %4, align 8, !tbaa !4
  %7 = call ptr @decNumberCopy(ptr noundef %5, ptr noundef %6)
  %8 = load ptr, ptr %3, align 8, !tbaa !4
  %9 = getelementptr inbounds nuw %struct.decNumber, ptr %8, i32 0, i32 2
  %10 = load i8, ptr %9, align 4, !tbaa !10
  %11 = zext i8 %10 to i32
  %12 = xor i32 %11, 128
  %13 = trunc i32 %12 to i8
  store i8 %13, ptr %9, align 4, !tbaa !10
  %14 = load ptr, ptr %3, align 8, !tbaa !4
  ret ptr %14
}